target datalayout = "e-m:e-p270:32:32-p271:32:32-p272:64:64-i64:64-i128:128-f80:128-n8:16:32:64-S128"
target triple = "x86_64-pc-linux-gnu"

%"class.icu_77::UnicodeSetStringSpan" = type { [8 x i8], %"class.icu_77::UnicodeSet", ptr, ptr, ptr, ptr, ptr, i32, i32, i32, i8, [32 x i32] }
%"class.icu_77::UnicodeSet" = type <{ %"class.icu_77::UnicodeFilter", ptr, i32, i32, i8, [7 x i8], ptr, ptr, i32, [4 x i8], ptr, i32, [4 x i8], ptr, ptr, [25 x i32], [4 x i8] }>
%"class.icu_77::UnicodeFilter" = type { %"class.icu_77::UnicodeFunctor", %"class.icu_77::UnicodeMatcher" }
%"class.icu_77::UnicodeFunctor" = type { %"class.icu_77::UObject" }
%"class.icu_77::UObject" = type { ptr }
%"class.icu_77::UnicodeMatcher" = type { ptr }
%"class.icu_77::UVector" = type { %"class.icu_77::UObject", i32, i32, ptr, ptr, ptr }

; Function Attrs: inlinehint mustprogress nounwind uwtable
define internal noundef signext i8 @_ZN6icu_77L8matches8EPKhS1_i(ptr noundef %0, ptr noundef %1, i32 noundef %2) #3 {
  %4 = alloca i8, align 1
  %5 = alloca ptr, align 8
  %6 = alloca ptr, align 8
  %7 = alloca i32, align 4
  store ptr %0, ptr %5, align 8, !tbaa !39
  store ptr %1, ptr %6, align 8, !tbaa !39
  store i32 %2, ptr %7, align 4, !tbaa !12
  br label %8

8:                                                ; preds = %20, %3
  %9 = load ptr, ptr %5, align 8, !tbaa !39
  %10 = getelementptr inbounds nuw i8, ptr %9, i32 1
  store ptr %10, ptr %5, align 8, !tbaa !39
  %11 = load i8, ptr %9, align 1, !tbaa !33
  %12 = zext i8 %11 to i32
  %13 = load ptr, ptr %6, align 8, !tbaa !39
  %14 = getelementptr inbounds nuw i8, ptr %13, i32 1
  store ptr %14, ptr %6, align 8, !tbaa !39
  %15 = load i8, ptr %13, align 1, !tbaa !33
  %16 = zext i8 %15 to i32
  %17 = icmp ne i32 %12, %16
  br i1 %17, label %18, label %19

18:                                               ; preds = %8
  store i8 0, ptr %4, align 1
  br label %25

19:                                               ; preds = %8
  br label %20

20:                                               ; preds = %19
  %21 = load i32, ptr %7, align 4, !tbaa !12
  %22 = add nsw i32 %21, -1
  store i32 %22, ptr %7, align 4, !tbaa !12
  %23 = icmp sgt i32 %22, 0
  br i1 %23, label %8, label %24, !llvm.loop !82

24:                                               ; preds = %20
  store i8 1, ptr %4, align 1
  br label %25

25:                                               ; preds = %24, %18
  %26 = load i8, ptr %4, align 1
  ret i8 %26
}

; Function Attrs: inlinehint mustprogress nounwind uwtable
define linkonce_odr noundef i32 @_ZNK6icu_777UVector4sizeEv(ptr noundef nonnull align 8 dereferenceable(40) %0) #3 comdat align 2 {
  %2 = alloca ptr, align 8
  store ptr %0, ptr %2, align 8, !tbaa !10
  %3 = load ptr, ptr %2, align 8
  %4 = getelementptr inbounds nuw %"class.icu_77::UVector", ptr %3, i32 0, i32 1
  %5 = load i32, ptr %4, align 8, !tbaa !45
  ret i32 %5
}

; Function Attrs: mustprogress uwtable
define noundef i32 @_ZNK6icu_7720UnicodeSetStringSpan11spanNotUTF8EPKhi(ptr noundef nonnull align 8 dereferenceable(392) %0, ptr noundef %1, i32 noundef %2) #0 align 2 {
  %4 = alloca i32, align 4
  %5 = alloca ptr, align 8
  %6 = alloca ptr, align 8
  %7 = alloca i32, align 4
  %8 = alloca i32, align 4
  %9 = alloca i32, align 4
  %10 = alloca i32, align 4
  %11 = alloca i32, align 4
  %12 = alloca ptr, align 8
  %13 = alloca i32, align 4
  %14 = alloca i32, align 4
  %15 = alloca ptr, align 8
  %16 = alloca i32, align 4
  store ptr %0, ptr %5, align 8, !tbaa !3
  store ptr %1, ptr %6, align 8, !tbaa !39
  store i32 %2, ptr %7, align 4, !tbaa !12
  %17 = load ptr, ptr %5, align 8
  call void @llvm.lifetime.start.p0(i64 4, ptr %8) #11
  store i32 0, ptr %8, align 4, !tbaa !12
  call void @llvm.lifetime.start.p0(i64 4, ptr %9) #11
  %18 = load i32, ptr %7, align 4, !tbaa !12
  store i32 %18, ptr %9, align 4, !tbaa !12
  call void @llvm.lifetime.start.p0(i64 4, ptr %10) #11
  call void @llvm.lifetime.start.p0(i64 4, ptr %11) #11
  %19 = getelementptr inbounds nuw %"class.icu_77::UnicodeSetStringSpan", ptr %17, i32 0, i32 3
  %20 = load ptr, ptr %19, align 8, !tbaa !32
  %21 = call noundef i32 @_ZNK6icu_777UVector4sizeEv(ptr noundef nonnull align 8 dereferenceable(40) %20)
  store i32 %21, ptr %11, align 4, !tbaa !12
  call void @llvm.lifetime.start.p0(i64 8, ptr %12) #11
  %22 = getelementptr inbounds nuw %"class.icu_77::UnicodeSetStringSpan", ptr %17, i32 0, i32 5
  %23 = load ptr, ptr %22, align 8, !tbaa !26
  store ptr %23, ptr %12, align 8, !tbaa !39
  %24 = getelementptr inbounds nuw %"class.icu_77::UnicodeSetStringSpan", ptr %17, i32 0, i32 10
  %25 = load i8, ptr %24, align 4, !tbaa !31
  %26 = icmp ne i8 %25, 0
  br i1 %26, label %27, label %33

27:                                               ; preds = %3
  %28 = load i32, ptr %11, align 4, !tbaa !12
  %29 = mul nsw i32 2, %28
  %30 = load ptr, ptr %12, align 8, !tbaa !39
  %31 = sext i32 %29 to i64
  %32 = getelementptr inbounds i8, ptr %30, i64 %31
  store ptr %32, ptr %12, align 8, !tbaa !39
  br label %33

33:                                               ; preds = %27, %3
  br label %34

34:                                               ; preds = %124, %33
  %35 = getelementptr inbounds nuw %"class.icu_77::UnicodeSetStringSpan", ptr %17, i32 0, i32 2
  %36 = load ptr, ptr %35, align 8, !tbaa !14
  %37 = load ptr, ptr %6, align 8, !tbaa !39
  %38 = load i32, ptr %8, align 4, !tbaa !12
  %39 = sext i32 %38 to i64
  %40 = getelementptr inbounds i8, ptr %37, i64 %39
  %41 = load i32, ptr %9, align 4, !tbaa !12
  %42 = call noundef i32 @_ZNK6icu_7710UnicodeSet8spanUTF8EPKci17USetSpanCondition(ptr noundef nonnull align 8 dereferenceable(200) %36, ptr noundef %40, i32 noundef %41, i32 noundef 0)
  store i32 %42, ptr %10, align 4, !tbaa !12
  %43 = load i32, ptr %10, align 4, !tbaa !12
  %44 = load i32, ptr %9, align 4, !tbaa !12
  %45 = icmp eq i32 %43, %44
  br i1 %45, label %46, label %48

46:                                               ; preds = %34
  %47 = load i32, ptr %7, align 4, !tbaa !12
  store i32 %47, ptr %4, align 4
  store i32 1, ptr %13, align 4
  br label %129

48:                                               ; preds = %34
  %49 = load i32, ptr %10, align 4, !tbaa !12
  %50 = load i32, ptr %8, align 4, !tbaa !12
  %51 = add nsw i32 %50, %49
  store i32 %51, ptr %8, align 4, !tbaa !12
  %52 = load i32, ptr %10, align 4, !tbaa !12
  %53 = load i32, ptr %9, align 4, !tbaa !12
  %54 = sub nsw i32 %53, %52
  store i32 %54, ptr %9, align 4, !tbaa !12
  call void @llvm.lifetime.start.p0(i64 4, ptr %14) #11
  %55 = getelementptr inbounds nuw %"class.icu_77::UnicodeSetStringSpan", ptr %17, i32 0, i32 1
  %56 = load ptr, ptr %6, align 8, !tbaa !39
  %57 = load i32, ptr %8, align 4, !tbaa !12
  %58 = sext i32 %57 to i64
  %59 = getelementptr inbounds i8, ptr %56, i64 %58
  %60 = load i32, ptr %9, align 4, !tbaa !12
  %61 = call noundef i32 @_ZN6icu_77L11spanOneUTF8ERKNS_10UnicodeSetEPKhi(ptr noundef nonnull align 8 dereferenceable(200) %55, ptr noundef %59, i32 noundef %60)
  store i32 %61, ptr %14, align 4, !tbaa !12
  %62 = load i32, ptr %14, align 4, !tbaa !12
  %63 = icmp sgt i32 %62, 0
  br i1 %63, label %64, label %66

64:                                               ; preds = %48
  %65 = load i32, ptr %8, align 4, !tbaa !12
  store i32 %65, ptr %4, align 4
  store i32 1, ptr %13, align 4
  br label %121

66:                                               ; preds = %48
  call void @llvm.lifetime.start.p0(i64 8, ptr %15) #11
  %67 = getelementptr inbounds nuw %"class.icu_77::UnicodeSetStringSpan", ptr %17, i32 0, i32 6
  %68 = load ptr, ptr %67, align 8, !tbaa !27
  store ptr %68, ptr %15, align 8, !tbaa !39
  call void @llvm.lifetime.start.p0(i64 4, ptr %16) #11
  store i32 0, ptr %10, align 4, !tbaa !12
  br label %69

69:                                               ; preds = %110, %66
  %70 = load i32, ptr %10, align 4, !tbaa !12
  %71 = load i32, ptr %11, align 4, !tbaa !12
  %72 = icmp slt i32 %70, %71
  br i1 %72, label %73, label %113

73:                                               ; preds = %69
  %74 = getelementptr inbounds nuw %"class.icu_77::UnicodeSetStringSpan", ptr %17, i32 0, i32 4
  %75 = load ptr, ptr %74, align 8, !tbaa !25
  %76 = load i32, ptr %10, align 4, !tbaa !12
  %77 = sext i32 %76 to i64
  %78 = getelementptr inbounds i32, ptr %75, i64 %77
  %79 = load i32, ptr %78, align 4, !tbaa !12
  store i32 %79, ptr %16, align 4, !tbaa !12
  %80 = load i32, ptr %16, align 4, !tbaa !12
  %81 = icmp ne i32 %80, 0
  br i1 %81, label %82, label %105

82:                                               ; preds = %73
  %83 = load ptr, ptr %12, align 8, !tbaa !39
  %84 = load i32, ptr %10, align 4, !tbaa !12
  %85 = sext i32 %84 to i64
  %86 = getelementptr inbounds i8, ptr %83, i64 %85
  %87 = load i8, ptr %86, align 1, !tbaa !33
  %88 = zext i8 %87 to i32
  %89 = icmp ne i32 %88, 255
  br i1 %89, label %90, label %105

90:                                               ; preds = %82
  %91 = load i32, ptr %16, align 4, !tbaa !12
  %92 = load i32, ptr %9, align 4, !tbaa !12
  %93 = icmp sle i32 %91, %92
  br i1 %93, label %94, label %105

94:                                               ; preds = %90
  %95 = load ptr, ptr %6, align 8, !tbaa !39
  %96 = load i32, ptr %8, align 4, !tbaa !12
  %97 = sext i32 %96 to i64
  %98 = getelementptr inbounds i8, ptr %95, i64 %97
  %99 = load ptr, ptr %15, align 8, !tbaa !39
  %100 = load i32, ptr %16, align 4, !tbaa !12
  %101 = call noundef signext i8 @_ZN6icu_77L8matches8EPKhS1_i(ptr noundef %98, ptr noundef %99, i32 noundef %100)
  %102 = icmp ne i8 %101, 0
  br i1 %102, label %103, label %105

103:                                              ; preds = %94
  %104 = load i32, ptr %8, align 4, !tbaa !12
  store i32 %104, ptr %4, align 4
  store i32 1, ptr %13, align 4
  br label %120

105:                                              ; preds = %94, %90, %82, %73
  %106 = load i32, ptr %16, align 4, !tbaa !12
  %107 = load ptr, ptr %15, align 8, !tbaa !39
  %108 = sext i32 %106 to i64
  %109 = getelementptr inbounds i8, ptr %107, i64 %108
  store ptr %109, ptr %15, align 8, !tbaa !39
  br label %110

110:                                              ; preds = %105
  %111 = load i32, ptr %10, align 4, !tbaa !12
  %112 = add nsw i32 %111, 1
  store i32 %112, ptr %10, align 4, !tbaa !12
  br label %69, !llvm.loop !80

113:                                              ; preds = %69
  %114 = load i32, ptr %14, align 4, !tbaa !12
  %115 = load i32, ptr %8, align 4, !tbaa !12
  %116 = sub nsw i32 %115, %114
  store i32 %116, ptr %8, align 4, !tbaa !12
  %117 = load i32, ptr %14, align 4, !tbaa !12
  %118 = load i32, ptr %9, align 4, !tbaa !12
  %119 = add nsw i32 %118, %117
  store i32 %119, ptr %9, align 4, !tbaa !12
  store i32 0, ptr %13, align 4
  br label %120

120:                                              ; preds = %113, %103
  call void @llvm.lifetime.end.p0(i64 4, ptr %16) #11
  call void @llvm.lifetime.end.p0(i64 8, ptr %15) #11
  br label %121

121:                                              ; preds = %120, %64
  call void @llvm.lifetime.end.p0(i64 4, ptr %14) #11
  %122 = load i32, ptr %13, align 4
  switch i32 %122, label %129 [
    i32 0, label %123
  ]

123:                                              ; preds = %121
  br label %124

124:                                              ; preds = %123
  %125 = load i32, ptr %9, align 4, !tbaa !12
  %126 = icmp ne i32 %125, 0
  br i1 %126, label %34, label %127, !llvm.loop !81

127:                                              ; preds = %124
  %128 = load i32, ptr %7, align 4, !tbaa !12
  store i32 %128, ptr %4, align 4
  store i32 1, ptr %13, align 4
  br label %129

129:                                              ; preds = %127, %121, %46
  call void @llvm.lifetime.end.p0(i64 8, ptr %12) #11
  call void @llvm.lifetime.end.p0(i64 4, ptr %11) #11
  call void @llvm.lifetime.end.p0(i64 4, ptr %10) #11
  call void @llvm.lifetime.end.p0(i64 4, ptr %9) #11
  call void @llvm.lifetime.end.p0(i64 4, ptr %8) #11
  %130 = load i32, ptr %4, align 4
  ret i32 %130
}