; Function Attrs: mustprogress uwtable
define noundef i32 @_ZNK6icu_7720UnicodeSetStringSpan11spanNotUTF8EPKhi(ptr noundef nonnull align 8 dereferenceable(392) %0, ptr noundef %1, i32 noundef %2) local_unnamed_addr #0 align 2 {
  %4 = getelementptr inbounds nuw i8, ptr %0, i64 216
  %5 = load ptr, ptr %4, align 8, !tbaa !23
  %6 = getelementptr inbounds nuw i8, ptr %5, i64 8
  %7 = load i32, ptr %6, align 8, !tbaa !24
  %.fr = freeze i32 %7
  %8 = getelementptr inbounds nuw i8, ptr %0, i64 232
  %9 = load ptr, ptr %8, align 8, !tbaa !37
  %10 = getelementptr inbounds nuw i8, ptr %0, i64 260
  %11 = load i8, ptr %10, align 4, !tbaa !22
  %.not = icmp eq i8 %11, 0
  %12 = shl nsw i32 %.fr, 1
  %13 = sext i32 %12 to i64
  %.048.idx = select i1 %.not, i64 0, i64 %13
  %.048 = getelementptr inbounds i8, ptr %9, i64 %.048.idx
  %14 = getelementptr inbounds nuw i8, ptr %0, i64 208
  %15 = getelementptr inbounds nuw i8, ptr %0, i64 8
  %16 = getelementptr inbounds nuw i8, ptr %0, i64 240
  %.not6971 = icmp sgt i32 %.fr, 0
  %17 = getelementptr inbounds nuw i8, ptr %0, i64 224
  br i1 %.not6971, label %.split.us.preheader, label %.split

.split.us.preheader:                              ; preds = %3
  %wide.trip.count = zext nneg i32 %.fr to i64
  br label %.split.us

.split.us:                                        ; preds = %.split.us.preheader, %._crit_edge.us
  %.049.us = phi i32 [ %48, %._crit_edge.us ], [ %2, %.split.us.preheader ]
  %.043.us = phi i32 [ %47, %._crit_edge.us ], [ 0, %.split.us.preheader ]
  %18 = load ptr, ptr %14, align 8, !tbaa !3
  %19 = sext i32 %.043.us to i64
  %20 = getelementptr inbounds i8, ptr %1, i64 %19
  %21 = tail call noundef i32 @_ZNK6icu_7710UnicodeSet8spanUTF8EPKci17USetSpanCondition(ptr noundef nonnull align 8 dereferenceable(200) %18, ptr noundef %20, i32 noundef %.049.us, i32 noundef 0)
  %22 = icmp eq i32 %21, %.049.us
  br i1 %22, label %_ZN6icu_77L8matches8EPKhS1_i.exit.thread64, label %23

23:                                               ; preds = %.split.us
  %24 = add nsw i32 %21, %.043.us
  %25 = sub nsw i32 %.049.us, %21
  %26 = sext i32 %24 to i64
  %27 = getelementptr inbounds i8, ptr %1, i64 %26
  %28 = tail call fastcc noundef i32 @_ZN6icu_77L11spanOneUTF8ERKNS_10UnicodeSetEPKhi(ptr noundef nonnull align 8 dereferenceable(200) %15, ptr noundef %27, i32 noundef %25)
  %29 = icmp sgt i32 %28, 0
  br i1 %29, label %_ZN6icu_77L8matches8EPKhS1_i.exit.thread64, label %.lr.ph.us

.lr.ph.us:                                        ; preds = %23
  %30 = load ptr, ptr %16, align 8, !tbaa !38
  %31 = load ptr, ptr %17, align 8, !tbaa !36
  br label %32

32:                                               ; preds = %.lr.ph.us, %_ZN6icu_77L8matches8EPKhS1_i.exit.thread.us
  %indvars.iv = phi i64 [ 0, %.lr.ph.us ], [ %indvars.iv.next, %_ZN6icu_77L8matches8EPKhS1_i.exit.thread.us ]
  %.04273.us = phi ptr [ %30, %.lr.ph.us ], [ %46, %_ZN6icu_77L8matches8EPKhS1_i.exit.thread.us ]
  %33 = getelementptr inbounds nuw i32, ptr %31, i64 %indvars.iv
  %34 = load i32, ptr %33, align 4, !tbaa !33
  %.not57.us = icmp eq i32 %34, 0
  br i1 %.not57.us, label %_ZN6icu_77L8matches8EPKhS1_i.exit.thread.us, label %35

35:                                               ; preds = %32
  %36 = getelementptr inbounds nuw i8, ptr %.048, i64 %indvars.iv
  %37 = load i8, ptr %36, align 1, !tbaa !27
  %.not58.us = icmp eq i8 %37, -1
  %.not59.us = icmp sgt i32 %34, %25
  %or.cond.us = or i1 %.not59.us, %.not58.us
  br i1 %or.cond.us, label %_ZN6icu_77L8matches8EPKhS1_i.exit.thread.us, label %.preheader.us

.preheader.us:                                    ; preds = %35, %40
  %.04.i.us = phi ptr [ %42, %40 ], [ %27, %35 ]
  %.03.i.us = phi ptr [ %41, %40 ], [ %.04273.us, %35 ]
  %.0.i.us = phi i32 [ %43, %40 ], [ %34, %35 ]
  %38 = load i8, ptr %.04.i.us, align 1, !tbaa !27
  %39 = load i8, ptr %.03.i.us, align 1, !tbaa !27
  %.not.i.us = icmp eq i8 %38, %39
  br i1 %.not.i.us, label %40, label %_ZN6icu_77L8matches8EPKhS1_i.exit.thread.us

40:                                               ; preds = %.preheader.us
  %41 = getelementptr inbounds nuw i8, ptr %.03.i.us, i64 1
  %42 = getelementptr inbounds nuw i8, ptr %.04.i.us, i64 1
  %43 = add nsw i32 %.0.i.us, -1
  %44 = icmp sgt i32 %.0.i.us, 1
  br i1 %44, label %.preheader.us, label %_ZN6icu_77L8matches8EPKhS1_i.exit.thread64, !llvm.loop !64

_ZN6icu_77L8matches8EPKhS1_i.exit.thread.us:      ; preds = %.preheader.us, %35, %32
  %45 = sext i32 %34 to i64
  %46 = getelementptr inbounds i8, ptr %.04273.us, i64 %45
  %indvars.iv.next = add nuw nsw i64 %indvars.iv, 1
  %exitcond.not = icmp eq i64 %indvars.iv.next, %wide.trip.count
  br i1 %exitcond.not, label %._crit_edge.us, label %32, !llvm.loop !70

._crit_edge.us:                                   ; preds = %_ZN6icu_77L8matches8EPKhS1_i.exit.thread.us
  %47 = sub nsw i32 %24, %28
  %48 = add nsw i32 %28, %25
  %.not61.us = icmp eq i32 %48, 0
  br i1 %.not61.us, label %_ZN6icu_77L8matches8EPKhS1_i.exit.thread64, label %.split.us, !llvm.loop !71

.split:                                           ; preds = %3, %61
  %.049 = phi i32 [ %63, %61 ], [ %2, %3 ]
  %.043 = phi i32 [ %62, %61 ], [ 0, %3 ]
  %49 = load ptr, ptr %14, align 8, !tbaa !3
  %50 = sext i32 %.043 to i64
  %51 = getelementptr inbounds i8, ptr %1, i64 %50
  %52 = tail call noundef i32 @_ZNK6icu_7710UnicodeSet8spanUTF8EPKci17USetSpanCondition(ptr noundef nonnull align 8 dereferenceable(200) %49, ptr noundef %51, i32 noundef %.049, i32 noundef 0)
  %53 = icmp eq i32 %52, %.049
  br i1 %53, label %_ZN6icu_77L8matches8EPKhS1_i.exit.thread64, label %54

54:                                               ; preds = %.split
  %55 = add nsw i32 %52, %.043
  %56 = sub nsw i32 %.049, %52
  %57 = sext i32 %55 to i64
  %58 = getelementptr inbounds i8, ptr %1, i64 %57
  %59 = tail call fastcc noundef i32 @_ZN6icu_77L11spanOneUTF8ERKNS_10UnicodeSetEPKhi(ptr noundef nonnull align 8 dereferenceable(200) %15, ptr noundef %58, i32 noundef %56)
  %60 = icmp sgt i32 %59, 0
  br i1 %60, label %_ZN6icu_77L8matches8EPKhS1_i.exit.thread64, label %61

61:                                               ; preds = %54
  %62 = sub nsw i32 %55, %59
  %63 = add nsw i32 %59, %56
  %.not61 = icmp eq i32 %63, 0
  br i1 %.not61, label %_ZN6icu_77L8matches8EPKhS1_i.exit.thread64, label %.split, !llvm.loop !71

_ZN6icu_77L8matches8EPKhS1_i.exit.thread64:       ; preds = %.split, %61, %54, %._crit_edge.us, %23, %.split.us, %40
  %.1 = phi i32 [ %24, %40 ], [ %24, %23 ], [ %2, %._crit_edge.us ], [ %2, %.split.us ], [ %55, %54 ], [ %2, %61 ], [ %2, %.split ]
  ret i32 %.1
}